; ModuleID = 'source-C-CXX/26/2144.c'
source_filename = "source-C-CXX/26/2144.c"
target datalayout = "e-m:e-p270:32:32-p271:32:32-p272:64:64-i64:64-f80:128-n8:16:32:64-S128"
target triple = "x86_64-pc-linux-gnu"

@.str = private unnamed_addr constant [3 x i8] c"%d\00", align 1
@.str.1 = private unnamed_addr constant [12 x i8] c"%lf %lf %lf\00", align 1
@.str.2 = private unnamed_addr constant [13 x i8] c"x1=x2=%.5lf\0A\00", align 1
@.str.3 = private unnamed_addr constant [35 x i8] c"x1=0.00000+%.5lf;x2=0.00000-%.5lf\0A\00", align 1
@.str.4 = private unnamed_addr constant [19 x i8] c"x1=%.5lf;x2=%.5lf\0A\00", align 1
@.str.5 = private unnamed_addr constant [37 x i8] c"x1=0.00000+%.5lfi;x2=0.00000-%.5lfi\0A\00", align 1
@.str.6 = private unnamed_addr constant [33 x i8] c"x1=%.5lf+%.5lfi;x2=%.5lf-%.5lfi\0A\00", align 1

; Function Attrs: nofree nounwind sspstrong uwtable
define dso_local i32 @main() local_unnamed_addr #0 {
  %1 = alloca i32, align 4
  %2 = alloca double, align 8
  %3 = alloca double, align 8
  %4 = alloca double, align 8
  %5 = bitcast i32* %1 to i8*
  call void @llvm.lifetime.start.p0i8(i64 4, i8* nonnull %5) #4
  %6 = call i32 (i8*, ...) @__isoc99_scanf(i8* getelementptr inbounds ([3 x i8], [3 x i8]* @.str, i64 0, i64 0), i32* nonnull %1)
  %7 = bitcast double* %2 to i8*
  call void @llvm.lifetime.start.p0i8(i64 8, i8* nonnull %7) #4
  %8 = bitcast double* %3 to i8*
  call void @llvm.lifetime.start.p0i8(i64 8, i8* nonnull %8) #4
  %9 = bitcast double* %4 to i8*
  call void @llvm.lifetime.start.p0i8(i64 8, i8* nonnull %9) #4
  %10 = load i32, i32* %1, align 4, !tbaa !5
  %11 = icmp slt i32 %10, 1
  br i1 %11, label %85, label %12

12:                                               ; preds = %0, %81
  %13 = phi i32 [ %82, %81 ], [ 1, %0 ]
  %14 = call i32 (i8*, ...) @__isoc99_scanf(i8* getelementptr inbounds ([12 x i8], [12 x i8]* @.str.1, i64 0, i64 0), double* nonnull %2, double* nonnull %3, double* nonnull %4)
  %15 = load double, double* %3, align 8, !tbaa !9
  %16 = fmul double %15, %15
  %17 = load double, double* %2, align 8, !tbaa !9
  %18 = fmul double %17, 4.000000e+00
  %19 = load double, double* %4, align 8, !tbaa !9
  %20 = fmul double %18, %19
  %21 = fsub double %16, %20
  %22 = fcmp oeq double %21, 0.000000e+00
  br i1 %22, label %23, label %28

23:                                               ; preds = %12
  %24 = fneg double %15
  %25 = fmul double %17, 2.000000e+00
  %26 = fdiv double %24, %25
  %27 = call i32 (i8*, ...) @printf(i8* nonnull dereferenceable(1) getelementptr inbounds ([13 x i8], [13 x i8]* @.str.2, i64 0, i64 0), double %26)
  br label %81

28:                                               ; preds = %12
  %29 = fcmp ogt double %21, 0.000000e+00
  %30 = fneg double %15
  %31 = fmul double %17, 2.000000e+00
  %32 = fdiv double %30, %31
  %33 = fcmp olt double %32, 1.000000e-05
  %34 = fcmp ogt double %32, -1.000000e-05
  %35 = and i1 %33, %34
  br i1 %29, label %36, label %60

36:                                               ; preds = %28
  %37 = call double @sqrt(double %21) #4
  br i1 %35, label %38, label %47

38:                                               ; preds = %36
  %39 = load double, double* %2, align 8, !tbaa !9
  %40 = fmul double %39, 2.000000e+00
  %41 = fdiv double %37, %40
  %42 = call double @sqrt(double %21) #4
  %43 = load double, double* %2, align 8, !tbaa !9
  %44 = fmul double %43, 2.000000e+00
  %45 = fdiv double %42, %44
  %46 = call i32 (i8*, ...) @printf(i8* nonnull dereferenceable(1) getelementptr inbounds ([35 x i8], [35 x i8]* @.str.3, i64 0, i64 0), double %41, double %45)
  br label %81

47:                                               ; preds = %36
  %48 = fsub double %37, %15
  %49 = load double, double* %2, align 8, !tbaa !9
  %50 = fmul double %49, 2.000000e+00
  %51 = fdiv double %48, %50
  %52 = load double, double* %3, align 8, !tbaa !9
  %53 = fneg double %52
  %54 = call double @sqrt(double %21) #4
  %55 = fsub double %53, %54
  %56 = load double, double* %2, align 8, !tbaa !9
  %57 = fmul double %56, 2.000000e+00
  %58 = fdiv double %55, %57
  %59 = call i32 (i8*, ...) @printf(i8* nonnull dereferenceable(1) getelementptr inbounds ([19 x i8], [19 x i8]* @.str.4, i64 0, i64 0), double %51, double %58)
  br label %81

60:                                               ; preds = %28
  %61 = fneg double %21
  %62 = call double @sqrt(double %61) #4
  %63 = load double, double* %2, align 8, !tbaa !9
  %64 = fmul double %63, 2.000000e+00
  %65 = fdiv double %62, %64
  br i1 %35, label %66, label %72

66:                                               ; preds = %60
  %67 = call double @sqrt(double %61) #4
  %68 = load double, double* %2, align 8, !tbaa !9
  %69 = fmul double %68, 2.000000e+00
  %70 = fdiv double %67, %69
  %71 = call i32 (i8*, ...) @printf(i8* nonnull dereferenceable(1) getelementptr inbounds ([37 x i8], [37 x i8]* @.str.5, i64 0, i64 0), double %65, double %70)
  br label %81

72:                                               ; preds = %60
  %73 = load double, double* %3, align 8, !tbaa !9
  %74 = fneg double %73
  %75 = fdiv double %74, %64
  %76 = call double @sqrt(double %61) #4
  %77 = load double, double* %2, align 8, !tbaa !9
  %78 = fmul double %77, 2.000000e+00
  %79 = fdiv double %76, %78
  %80 = call i32 (i8*, ...) @printf(i8* nonnull dereferenceable(1) getelementptr inbounds ([33 x i8], [33 x i8]* @.str.6, i64 0, i64 0), double %32, double %65, double %75, double %79)
  br label %81

81:                                               ; preds = %23, %66, %72, %38, %47
  %82 = add nuw nsw i32 %13, 1
  %83 = load i32, i32* %1, align 4, !tbaa !5
  %84 = icmp slt i32 %13, %83
  br i1 %84, label %12, label %85, !llvm.loop !11

85:                                               ; preds = %81, %0
  call void @llvm.lifetime.end.p0i8(i64 8, i8* nonnull %9) #4
  call void @llvm.lifetime.end.p0i8(i64 8, i8* nonnull %8) #4
  call void @llvm.lifetime.end.p0i8(i64 8, i8* nonnull %7) #4
  call void @llvm.lifetime.end.p0i8(i64 4, i8* nonnull %5) #4
  ret i32 0
}

; Function Attrs: argmemonly mustprogress nofree nosync nounwind willreturn
declare void @llvm.lifetime.start.p0i8(i64 immarg, i8* nocapture) #1

; Function Attrs: nofree nounwind
declare noundef i32 @__isoc99_scanf(i8* nocapture noundef readonly, ...) local_unnamed_addr #2

; Function Attrs: nofree nounwind
declare noundef i32 @printf(i8* nocapture noundef readonly, ...) local_unnamed_addr #2

; Function Attrs: mustprogress nofree nounwind willreturn
declare double @sqrt(double) local_unnamed_addr #3

; Function Attrs: argmemonly mustprogress nofree nosync nounwind willreturn
declare void @llvm.lifetime.end.p0i8(i64 immarg, i8* nocapture) #1


!llvm.module.flags = !{!0, !1, !2, !3}
!llvm.ident = !{!4}

!0 = !{i32 1, !"wchar_size", i32 4}
!1 = !{i32 7, !"PIC Level", i32 2}
!2 = !{i32 7, !"PIE Level", i32 2}
!3 = !{i32 7, !"uwtable", i32 1}
!4 = !{!"clang version 13.0.0"}
!5 = !{!6, !6, i64 0}
!6 = !{!"int", !7, i64 0}
!7 = !{!"omnipotent char", !8, i64 0}
!8 = !{!"Simple C/C++ TBAA"}
!9 = !{!10, !10, i64 0}
!10 = !{!"double", !7, i64 0}
!11 = distinct !{!11, !12}
!12 = !{!"llvm.loop.mustprogress"}
